; Function Attrs: nounwind uwtable
define internal fastcc void @InitIndexAmRoutine(ptr noundef captures(none) initializes((352, 360)) %0) unnamed_addr #0 {
  %2 = getelementptr inbounds nuw i8, ptr %0, i64 312
  %3 = load i32, ptr %2, align 8
  %4 = tail call ptr @GetIndexAmRoutine(i32 noundef %3) #13
  %5 = getelementptr inbounds nuw i8, ptr %0, i64 344
  %6 = load ptr, ptr %5, align 8
  %7 = tail call ptr @MemoryContextAlloc(ptr noundef %6, i64 noundef 240) #13
  tail call void @llvm.memcpy.p0.p0.i64(ptr noundef nonnull align 8 dereferenceable(240) %7, ptr noundef nonnull align 8 dereferenceable(240) %4, i64 240, i1 false)
  %8 = getelementptr inbounds nuw i8, ptr %0, i64 352
  store ptr %7, ptr %8, align 8
  tail call void @pfree(ptr noundef nonnull %4) #13
  ret void
}